target datalayout = "e-m:e-p270:32:32-p271:32:32-p272:64:64-i64:64-i128:128-f80:128-n8:16:32:64-S128"
target triple = "x86_64-pc-linux-gnu"

%struct.AVFilterContext = type { ptr, ptr, ptr, ptr, ptr, i32, ptr, ptr, i32, ptr, ptr, i32, i32, ptr, ptr, ptr, ptr, i32, ptr, i32, i32 }
%struct.CrossfeedContext = type { ptr, double, double, double, double, double, i32, i32, double, double, double, double, double, double, double, double, i64, i32, ptr, [3 x ptr] }

; Function Attrs: inlinehint nounwind uwtable
define internal void @ff_outlink_set_status(ptr noundef %0, i32 noundef %1, i64 noundef %2) #6 {
  %4 = alloca ptr, align 8
  %5 = alloca i32, align 4
  %6 = alloca i64, align 8
  store ptr %0, ptr %4, align 8, !tbaa !31
  store i32 %1, ptr %5, align 4, !tbaa !24
  store i64 %2, ptr %6, align 8, !tbaa !40
  %7 = load ptr, ptr %4, align 8, !tbaa !31
  %8 = load i32, ptr %5, align 4, !tbaa !24
  %9 = load i64, ptr %6, align 8, !tbaa !40
  call void @ff_avfilter_link_set_in_status(ptr noundef %7, i32 noundef %8, i64 noundef %9)
  ret void
}

; Function Attrs: nounwind uwtable
define internal i32 @activate(ptr noundef %0) #1 {
  %2 = alloca i32, align 4
  %3 = alloca ptr, align 8
  %4 = alloca ptr, align 8
  %5 = alloca ptr, align 8
  %6 = alloca ptr, align 8
  %7 = alloca ptr, align 8
  %8 = alloca i64, align 8
  %9 = alloca i32, align 4
  %10 = alloca i32, align 4
  %11 = alloca i32, align 4
  %12 = alloca i32, align 4
  %13 = alloca ptr, align 8
  store ptr %0, ptr %3, align 8, !tbaa !4
  call void @llvm.lifetime.start.p0(i64 8, ptr %4) #8
  %14 = load ptr, ptr %3, align 8, !tbaa !4
  %15 = getelementptr inbounds nuw %struct.AVFilterContext, ptr %14, i32 0, i32 4
  %16 = load ptr, ptr %15, align 8, !tbaa !30
  %17 = getelementptr inbounds ptr, ptr %16, i64 0
  %18 = load ptr, ptr %17, align 8, !tbaa !31
  store ptr %18, ptr %4, align 8, !tbaa !31
  call void @llvm.lifetime.start.p0(i64 8, ptr %5) #8
  %19 = load ptr, ptr %3, align 8, !tbaa !4
  %20 = getelementptr inbounds nuw %struct.AVFilterContext, ptr %19, i32 0, i32 7
  %21 = load ptr, ptr %20, align 8, !tbaa !33
  %22 = getelementptr inbounds ptr, ptr %21, i64 0
  %23 = load ptr, ptr %22, align 8, !tbaa !31
  store ptr %23, ptr %5, align 8, !tbaa !31
  call void @llvm.lifetime.start.p0(i64 8, ptr %6) #8
  %24 = load ptr, ptr %3, align 8, !tbaa !4
  %25 = getelementptr inbounds nuw %struct.AVFilterContext, ptr %24, i32 0, i32 9
  %26 = load ptr, ptr %25, align 8, !tbaa !9
  store ptr %26, ptr %6, align 8, !tbaa !22
  call void @llvm.lifetime.start.p0(i64 8, ptr %7) #8
  store ptr null, ptr %7, align 8, !tbaa !34
  call void @llvm.lifetime.start.p0(i64 8, ptr %8) #8
  call void @llvm.lifetime.start.p0(i64 4, ptr %9) #8
  call void @llvm.lifetime.start.p0(i64 4, ptr %10) #8
  br label %27

27:                                               ; preds = %1
  call void @llvm.lifetime.start.p0(i64 4, ptr %11) #8
  %28 = load ptr, ptr %5, align 8, !tbaa !31
  %29 = call i32 @ff_outlink_get_status(ptr noundef %28)
  store i32 %29, ptr %11, align 4, !tbaa !24
  %30 = load i32, ptr %11, align 4, !tbaa !24
  %31 = icmp ne i32 %30, 0
  br i1 %31, label %32, label %35

32:                                               ; preds = %27
  %33 = load ptr, ptr %4, align 8, !tbaa !31
  %34 = load i32, ptr %11, align 4, !tbaa !24
  call void @ff_inlink_set_status(ptr noundef %33, i32 noundef %34)
  store i32 0, ptr %2, align 4
  store i32 1, ptr %12, align 4
  br label %36

35:                                               ; preds = %27
  store i32 0, ptr %12, align 4
  br label %36

36:                                               ; preds = %35, %32
  call void @llvm.lifetime.end.p0(i64 4, ptr %11) #8
  %37 = load i32, ptr %12, align 4
  switch i32 %37, label %123 [
    i32 0, label %38
  ]

38:                                               ; preds = %36
  br label %39

39:                                               ; preds = %38
  br label %40

40:                                               ; preds = %39
  %41 = load ptr, ptr %6, align 8, !tbaa !22
  %42 = getelementptr inbounds nuw %struct.CrossfeedContext, ptr %41, i32 0, i32 6
  %43 = load i32, ptr %42, align 8, !tbaa !36
  %44 = icmp sgt i32 %43, 0
  br i1 %44, label %45, label %54

45:                                               ; preds = %40
  %46 = load ptr, ptr %4, align 8, !tbaa !31
  %47 = load ptr, ptr %6, align 8, !tbaa !22
  %48 = getelementptr inbounds nuw %struct.CrossfeedContext, ptr %47, i32 0, i32 6
  %49 = load i32, ptr %48, align 8, !tbaa !36
  %50 = load ptr, ptr %6, align 8, !tbaa !22
  %51 = getelementptr inbounds nuw %struct.CrossfeedContext, ptr %50, i32 0, i32 6
  %52 = load i32, ptr %51, align 8, !tbaa !36
  %53 = call i32 @ff_inlink_consume_samples(ptr noundef %46, i32 noundef %49, i32 noundef %52, ptr noundef %7)
  store i32 %53, ptr %10, align 4, !tbaa !24
  br label %57

54:                                               ; preds = %40
  %55 = load ptr, ptr %4, align 8, !tbaa !31
  %56 = call i32 @ff_inlink_consume_frame(ptr noundef %55, ptr noundef %7)
  store i32 %56, ptr %10, align 4, !tbaa !24
  br label %57

57:                                               ; preds = %54, %45
  %58 = load i32, ptr %10, align 4, !tbaa !24
  %59 = icmp slt i32 %58, 0
  br i1 %59, label %60, label %62

60:                                               ; preds = %57
  %61 = load i32, ptr %10, align 4, !tbaa !24
  store i32 %61, ptr %2, align 4
  store i32 1, ptr %12, align 4
  br label %123

62:                                               ; preds = %57
  %63 = load i32, ptr %10, align 4, !tbaa !24
  %64 = icmp sgt i32 %63, 0
  br i1 %64, label %65, label %69

65:                                               ; preds = %62
  %66 = load ptr, ptr %4, align 8, !tbaa !31
  %67 = load ptr, ptr %7, align 8, !tbaa !34
  %68 = call i32 @filter_frame(ptr noundef %66, ptr noundef %67, i32 noundef 0)
  store i32 %68, ptr %2, align 4
  store i32 1, ptr %12, align 4
  br label %123

69:                                               ; preds = %62
  %70 = load ptr, ptr %6, align 8, !tbaa !22
  %71 = getelementptr inbounds nuw %struct.CrossfeedContext, ptr %70, i32 0, i32 6
  %72 = load i32, ptr %71, align 8, !tbaa !36
  %73 = icmp sgt i32 %72, 0
  br i1 %73, label %74, label %83

74:                                               ; preds = %69
  %75 = load ptr, ptr %4, align 8, !tbaa !31
  %76 = call i32 @ff_inlink_queued_samples(ptr noundef %75)
  %77 = load ptr, ptr %6, align 8, !tbaa !22
  %78 = getelementptr inbounds nuw %struct.CrossfeedContext, ptr %77, i32 0, i32 6
  %79 = load i32, ptr %78, align 8, !tbaa !36
  %80 = icmp sge i32 %76, %79
  br i1 %80, label %81, label %83

81:                                               ; preds = %74
  %82 = load ptr, ptr %3, align 8, !tbaa !4
  call void @ff_filter_set_ready(ptr noundef %82, i32 noundef 10)
  store i32 0, ptr %2, align 4
  store i32 1, ptr %12, align 4
  br label %123

83:                                               ; preds = %74, %69
  %84 = load ptr, ptr %4, align 8, !tbaa !31
  %85 = call i32 @ff_inlink_acknowledge_status(ptr noundef %84, ptr noundef %9, ptr noundef %8)
  %86 = icmp ne i32 %85, 0
  br i1 %86, label %87, label %113

87:                                               ; preds = %83
  %88 = load ptr, ptr %6, align 8, !tbaa !22
  %89 = getelementptr inbounds nuw %struct.CrossfeedContext, ptr %88, i32 0, i32 6
  %90 = load i32, ptr %89, align 8, !tbaa !36
  %91 = icmp sgt i32 %90, 0
  br i1 %91, label %92, label %108

92:                                               ; preds = %87
  call void @llvm.lifetime.start.p0(i64 8, ptr %13) #8
  %93 = load ptr, ptr %5, align 8, !tbaa !31
  %94 = load ptr, ptr %6, align 8, !tbaa !22
  %95 = getelementptr inbounds nuw %struct.CrossfeedContext, ptr %94, i32 0, i32 6
  %96 = load i32, ptr %95, align 8, !tbaa !36
  %97 = call ptr @ff_get_audio_buffer(ptr noundef %93, i32 noundef %96)
  store ptr %97, ptr %13, align 8, !tbaa !34
  %98 = load ptr, ptr %13, align 8, !tbaa !34
  %99 = icmp ne ptr %98, null
  br i1 %99, label %101, label %100

100:                                              ; preds = %92
  store i32 -12, ptr %2, align 4
  store i32 1, ptr %12, align 4
  br label %105

101:                                              ; preds = %92
  %102 = load ptr, ptr %4, align 8, !tbaa !31
  %103 = load ptr, ptr %13, align 8, !tbaa !34
  %104 = call i32 @filter_frame(ptr noundef %102, ptr noundef %103, i32 noundef 1)
  store i32 %104, ptr %10, align 4, !tbaa !24
  store i32 0, ptr %12, align 4
  br label %105

105:                                              ; preds = %101, %100
  call void @llvm.lifetime.end.p0(i64 8, ptr %13) #8
  %106 = load i32, ptr %12, align 4
  switch i32 %106, label %123 [
    i32 0, label %107
  ]

107:                                              ; preds = %105
  br label %108

108:                                              ; preds = %107, %87
  %109 = load ptr, ptr %5, align 8, !tbaa !31
  %110 = load i32, ptr %9, align 4, !tbaa !24
  %111 = load i64, ptr %8, align 8, !tbaa !40
  call void @ff_outlink_set_status(ptr noundef %109, i32 noundef %110, i64 noundef %111)
  %112 = load i32, ptr %10, align 4, !tbaa !24
  store i32 %112, ptr %2, align 4
  store i32 1, ptr %12, align 4
  br label %123

113:                                              ; preds = %83
  br label %114

114:                                              ; preds = %113
  %115 = load ptr, ptr %5, align 8, !tbaa !31
  %116 = call i32 @ff_outlink_frame_wanted(ptr noundef %115)
  %117 = icmp ne i32 %116, 0
  br i1 %117, label %118, label %120

118:                                              ; preds = %114
  %119 = load ptr, ptr %4, align 8, !tbaa !31
  call void @ff_inlink_request_frame(ptr noundef %119)
  store i32 0, ptr %2, align 4
  store i32 1, ptr %12, align 4
  br label %123

120:                                              ; preds = %114
  br label %121

121:                                              ; preds = %120
  br label %122

122:                                              ; preds = %121
  store i32 -1497649742, ptr %2, align 4
  store i32 1, ptr %12, align 4
  br label %123

123:                                              ; preds = %122, %118, %108, %105, %81, %65, %60, %36
  call void @llvm.lifetime.end.p0(i64 4, ptr %10) #8
  call void @llvm.lifetime.end.p0(i64 4, ptr %9) #8
  call void @llvm.lifetime.end.p0(i64 8, ptr %8) #8
  call void @llvm.lifetime.end.p0(i64 8, ptr %7) #8
  call void @llvm.lifetime.end.p0(i64 8, ptr %6) #8
  call void @llvm.lifetime.end.p0(i64 8, ptr %5) #8
  call void @llvm.lifetime.end.p0(i64 8, ptr %4) #8
  %124 = load i32, ptr %2, align 4
  ret i32 %124
}