; Function Attrs: nounwind uwtable
define internal i32 @activate(ptr noundef %0) #1 {
  %2 = alloca ptr, align 8
  %3 = alloca i64, align 8
  %4 = alloca i32, align 4
  %5 = getelementptr inbounds nuw i8, ptr %0, i64 32
  %6 = load ptr, ptr %5, align 8, !tbaa !22
  %7 = load ptr, ptr %6, align 8, !tbaa !23
  %8 = getelementptr inbounds nuw i8, ptr %0, i64 56
  %9 = load ptr, ptr %8, align 8, !tbaa !25
  %10 = load ptr, ptr %9, align 8, !tbaa !23
  %11 = getelementptr inbounds nuw i8, ptr %0, i64 72
  %12 = load ptr, ptr %11, align 8, !tbaa !4
  call void @llvm.lifetime.start.p0(i64 8, ptr nonnull %2) #7
  store ptr null, ptr %2, align 8, !tbaa !26
  call void @llvm.lifetime.start.p0(i64 8, ptr nonnull %3) #7
  call void @llvm.lifetime.start.p0(i64 4, ptr nonnull %4) #7
  %13 = tail call i32 @ff_outlink_get_status(ptr noundef %10) #7
  %.not = icmp eq i32 %13, 0
  br i1 %.not, label %.critedge, label %14

14:                                               ; preds = %1
  tail call void @ff_inlink_set_status(ptr noundef %7, i32 noundef %13) #7
  br label %.thread

.critedge:                                        ; preds = %1
  %15 = getelementptr inbounds nuw i8, ptr %12, i64 48
  %16 = load i32, ptr %15, align 8, !tbaa !28
  %17 = icmp sgt i32 %16, 0
  br i1 %17, label %18, label %20

18:                                               ; preds = %.critedge
  %19 = call i32 @ff_inlink_consume_samples(ptr noundef %7, i32 noundef %16, i32 noundef %16, ptr noundef nonnull %2) #7
  br label %22

20:                                               ; preds = %.critedge
  %21 = call i32 @ff_inlink_consume_frame(ptr noundef %7, ptr noundef nonnull %2) #7
  br label %22

22:                                               ; preds = %20, %18
  %.036 = phi i32 [ %19, %18 ], [ %21, %20 ]
  %23 = icmp slt i32 %.036, 0
  br i1 %23, label %.thread, label %24

24:                                               ; preds = %22
  %.not42 = icmp eq i32 %.036, 0
  br i1 %.not42, label %29, label %25

25:                                               ; preds = %24
  %26 = load ptr, ptr %2, align 8, !tbaa !26
  %27 = getelementptr i8, ptr %7, i64 16
  %.val = load ptr, ptr %27, align 8, !tbaa !32
  %28 = call fastcc i32 @filter_frame(ptr %.val, ptr noundef %26, i32 noundef 0)
  br label %.thread

29:                                               ; preds = %24
  %30 = load i32, ptr %15, align 8, !tbaa !28
  %31 = icmp sgt i32 %30, 0
  br i1 %31, label %32, label %36

32:                                               ; preds = %29
  %33 = call i32 @ff_inlink_queued_samples(ptr noundef %7) #7
  %34 = load i32, ptr %15, align 8, !tbaa !28
  %.not43 = icmp slt i32 %33, %34
  br i1 %.not43, label %36, label %35

35:                                               ; preds = %32
  call void @ff_filter_set_ready(ptr noundef nonnull %0, i32 noundef 10) #7
  br label %.thread

36:                                               ; preds = %32, %29
  %37 = call i32 @ff_inlink_acknowledge_status(ptr noundef %7, ptr noundef nonnull %4, ptr noundef nonnull %3) #7
  %.not44 = icmp eq i32 %37, 0
  br i1 %.not44, label %49, label %38

38:                                               ; preds = %36
  %39 = load i32, ptr %15, align 8, !tbaa !28
  %40 = icmp sgt i32 %39, 0
  br i1 %40, label %41, label %46

41:                                               ; preds = %38
  %42 = call ptr @ff_get_audio_buffer(ptr noundef %10, i32 noundef %39) #7
  %.not46.not = icmp eq ptr %42, null
  br i1 %.not46.not, label %.thread, label %43

43:                                               ; preds = %41
  %44 = getelementptr i8, ptr %7, i64 16
  %.val47 = load ptr, ptr %44, align 8, !tbaa !32
  %45 = call fastcc i32 @filter_frame(ptr %.val47, ptr noundef nonnull %42, i32 noundef 1)
  br label %46

46:                                               ; preds = %43, %38
  %.137 = phi i32 [ %45, %43 ], [ 0, %38 ]
  %47 = load i32, ptr %4, align 4, !tbaa !41
  %48 = load i64, ptr %3, align 8, !tbaa !42
  call void @ff_avfilter_link_set_in_status(ptr noundef %10, i32 noundef %47, i64 noundef %48) #7
  br label %.thread

49:                                               ; preds = %36
  %50 = call i32 @ff_outlink_frame_wanted(ptr noundef %10) #7
  %.not45 = icmp eq i32 %50, 0
  br i1 %.not45, label %.thread, label %51

51:                                               ; preds = %49
  call void @ff_inlink_request_frame(ptr noundef %7) #7
  br label %.thread

.thread:                                          ; preds = %41, %14, %49, %22, %51, %46, %35, %25
  %.1 = phi i32 [ %28, %25 ], [ 0, %35 ], [ %.137, %46 ], [ 0, %51 ], [ 0, %14 ], [ %.036, %22 ], [ -1497649742, %49 ], [ -12, %41 ]
  call void @llvm.lifetime.end.p0(i64 4, ptr nonnull %4) #7
  call void @llvm.lifetime.end.p0(i64 8, ptr nonnull %3) #7
  call void @llvm.lifetime.end.p0(i64 8, ptr nonnull %2) #7
  ret i32 %.1
}